target datalayout = "e-m:e-p270:32:32-p271:32:32-p272:64:64-i64:64-i128:128-f80:128-n8:16:32:64-S128"
target triple = "x86_64-pc-linux-gnu"

%struct.AVOption = type { ptr, ptr, i32, i32, %union.anon, double, double, i32, ptr }
%union.anon = type { i64 }
%struct.AVRational = type { i32, i32 }

; Function Attrs: nounwind uwtable
define internal i32 @read_number(ptr noundef %0, ptr noundef %1, ptr noundef %2, ptr noundef %3, ptr noundef %4) #0 {
  %6 = alloca i32, align 4
  %7 = alloca ptr, align 8
  %8 = alloca ptr, align 8
  %9 = alloca ptr, align 8
  %10 = alloca ptr, align 8
  %11 = alloca ptr, align 8
  store ptr %0, ptr %7, align 8, !tbaa !8
  store ptr %1, ptr %8, align 8, !tbaa !4
  store ptr %2, ptr %9, align 8, !tbaa !59
  store ptr %3, ptr %10, align 8, !tbaa !30
  store ptr %4, ptr %11, align 8, !tbaa !55
  %12 = load ptr, ptr %7, align 8, !tbaa !8
  %13 = getelementptr inbounds nuw %struct.AVOption, ptr %12, i32 0, i32 3
  %14 = load i32, ptr %13, align 4, !tbaa !21
  %15 = and i32 %14, -65537
  switch i32 %15, label %69 [
    i32 1, label %16
    i32 13, label %21
    i32 14, label %26
    i32 18, label %31
    i32 2, label %31
    i32 20, label %36
    i32 16, label %41
    i32 3, label %41
    i32 10, label %41
    i32 5, label %45
    i32 4, label %50
    i32 7, label %54
    i32 11, label %64
  ]

16:                                               ; preds = %5
  %17 = load ptr, ptr %8, align 8, !tbaa !4
  %18 = load i32, ptr %17, align 4, !tbaa !20
  %19 = zext i32 %18 to i64
  %20 = load ptr, ptr %11, align 8, !tbaa !55
  store i64 %19, ptr %20, align 8, !tbaa !39
  store i32 0, ptr %6, align 4
  br label %70

21:                                               ; preds = %5
  %22 = load ptr, ptr %8, align 8, !tbaa !4
  %23 = load i32, ptr %22, align 4, !tbaa !20
  %24 = sext i32 %23 to i64
  %25 = load ptr, ptr %11, align 8, !tbaa !55
  store i64 %24, ptr %25, align 8, !tbaa !39
  store i32 0, ptr %6, align 4
  br label %70

26:                                               ; preds = %5
  %27 = load ptr, ptr %8, align 8, !tbaa !4
  %28 = load i32, ptr %27, align 4, !tbaa !20
  %29 = sext i32 %28 to i64
  %30 = load ptr, ptr %11, align 8, !tbaa !55
  store i64 %29, ptr %30, align 8, !tbaa !39
  store i32 0, ptr %6, align 4
  br label %70

31:                                               ; preds = %5, %5
  %32 = load ptr, ptr %8, align 8, !tbaa !4
  %33 = load i32, ptr %32, align 4, !tbaa !20
  %34 = sext i32 %33 to i64
  %35 = load ptr, ptr %11, align 8, !tbaa !55
  store i64 %34, ptr %35, align 8, !tbaa !39
  store i32 0, ptr %6, align 4
  br label %70

36:                                               ; preds = %5
  %37 = load ptr, ptr %8, align 8, !tbaa !4
  %38 = load i32, ptr %37, align 4, !tbaa !20
  %39 = zext i32 %38 to i64
  %40 = load ptr, ptr %11, align 8, !tbaa !55
  store i64 %39, ptr %40, align 8, !tbaa !39
  store i32 0, ptr %6, align 4
  br label %70

41:                                               ; preds = %5, %5, %5
  %42 = load ptr, ptr %8, align 8, !tbaa !4
  %43 = load i64, ptr %42, align 8, !tbaa !39
  %44 = load ptr, ptr %11, align 8, !tbaa !55
  store i64 %43, ptr %44, align 8, !tbaa !39
  store i32 0, ptr %6, align 4
  br label %70

45:                                               ; preds = %5
  %46 = load ptr, ptr %8, align 8, !tbaa !4
  %47 = load float, ptr %46, align 4, !tbaa !76
  %48 = fpext nsz float %47 to double
  %49 = load ptr, ptr %9, align 8, !tbaa !59
  store double %48, ptr %49, align 8, !tbaa !53
  store i32 0, ptr %6, align 4
  br label %70

50:                                               ; preds = %5
  %51 = load ptr, ptr %8, align 8, !tbaa !4
  %52 = load double, ptr %51, align 8, !tbaa !53
  %53 = load ptr, ptr %9, align 8, !tbaa !59
  store double %52, ptr %53, align 8, !tbaa !53
  store i32 0, ptr %6, align 4
  br label %70

54:                                               ; preds = %5
  %55 = load ptr, ptr %8, align 8, !tbaa !4
  %56 = getelementptr inbounds nuw %struct.AVRational, ptr %55, i32 0, i32 0
  %57 = load i32, ptr %56, align 4, !tbaa !48
  %58 = sext i32 %57 to i64
  %59 = load ptr, ptr %11, align 8, !tbaa !55
  store i64 %58, ptr %59, align 8, !tbaa !39
  %60 = load ptr, ptr %8, align 8, !tbaa !4
  %61 = getelementptr inbounds nuw %struct.AVRational, ptr %60, i32 0, i32 1
  %62 = load i32, ptr %61, align 4, !tbaa !46
  %63 = load ptr, ptr %10, align 8, !tbaa !30
  store i32 %62, ptr %63, align 4, !tbaa !20
  store i32 0, ptr %6, align 4
  br label %70

64:                                               ; preds = %5
  %65 = load ptr, ptr %7, align 8, !tbaa !8
  %66 = getelementptr inbounds nuw %struct.AVOption, ptr %65, i32 0, i32 4
  %67 = load i64, ptr %66, align 8, !tbaa !35
  %68 = load ptr, ptr %11, align 8, !tbaa !55
  store i64 %67, ptr %68, align 8, !tbaa !39
  store i32 0, ptr %6, align 4
  br label %70

69:                                               ; preds = %5
  store i32 -22, ptr %6, align 4
  br label %70

70:                                               ; preds = %69, %64, %54, %50, %45, %41, %36, %31, %26, %21, %16
  %71 = load i32, ptr %6, align 4
  ret i32 %71
}

; Function Attrs: nounwind uwtable
define internal i32 @get_number(ptr noundef %0, ptr noundef %1, ptr noundef %2, ptr noundef %3, ptr noundef %4, i32 noundef %5) #0 {
  %7 = alloca i32, align 4
  %8 = alloca ptr, align 8
  %9 = alloca ptr, align 8
  %10 = alloca ptr, align 8
  %11 = alloca ptr, align 8
  %12 = alloca ptr, align 8
  %13 = alloca i32, align 4
  %14 = alloca ptr, align 8
  %15 = alloca ptr, align 8
  %16 = alloca ptr, align 8
  %17 = alloca i32, align 4
  store ptr %0, ptr %8, align 8, !tbaa !4
  store ptr %1, ptr %9, align 8, !tbaa !19
  store ptr %2, ptr %10, align 8, !tbaa !59
  store ptr %3, ptr %11, align 8, !tbaa !30
  store ptr %4, ptr %12, align 8, !tbaa !55
  store i32 %5, ptr %13, align 4, !tbaa !20
  call void @llvm.lifetime.start.p0(i64 8, ptr %14) #11
  call void @llvm.lifetime.start.p0(i64 8, ptr %15) #11
  call void @llvm.lifetime.start.p0(i64 8, ptr %16) #11
  %18 = load ptr, ptr %8, align 8, !tbaa !4
  %19 = load ptr, ptr %9, align 8, !tbaa !19
  %20 = load i32, ptr %13, align 4, !tbaa !20
  %21 = call ptr @av_opt_find2(ptr noundef %18, ptr noundef %19, ptr noundef null, i32 noundef 0, i32 noundef %20, ptr noundef %15)
  store ptr %21, ptr %16, align 8, !tbaa !8
  %22 = load ptr, ptr %16, align 8, !tbaa !8
  %23 = icmp ne ptr %22, null
  br i1 %23, label %24, label %27

24:                                               ; preds = %6
  %25 = load ptr, ptr %15, align 8, !tbaa !4
  %26 = icmp ne ptr %25, null
  br i1 %26, label %28, label %27

27:                                               ; preds = %24, %6
  store i32 -1414549496, ptr %7, align 4
  store i32 1, ptr %17, align 4
  br label %48

28:                                               ; preds = %24
  %29 = load ptr, ptr %16, align 8, !tbaa !8
  %30 = getelementptr inbounds nuw %struct.AVOption, ptr %29, i32 0, i32 3
  %31 = load i32, ptr %30, align 4, !tbaa !21
  %32 = and i32 %31, 65536
  %33 = icmp ne i32 %32, 0
  br i1 %33, label %34, label %35

34:                                               ; preds = %28
  store i32 -22, ptr %7, align 4
  store i32 1, ptr %17, align 4
  br label %48

35:                                               ; preds = %28
  %36 = load ptr, ptr %15, align 8, !tbaa !4
  %37 = load ptr, ptr %16, align 8, !tbaa !8
  %38 = getelementptr inbounds nuw %struct.AVOption, ptr %37, i32 0, i32 2
  %39 = load i32, ptr %38, align 8, !tbaa !34
  %40 = sext i32 %39 to i64
  %41 = getelementptr inbounds i8, ptr %36, i64 %40
  store ptr %41, ptr %14, align 8, !tbaa !4
  %42 = load ptr, ptr %16, align 8, !tbaa !8
  %43 = load ptr, ptr %14, align 8, !tbaa !4
  %44 = load ptr, ptr %10, align 8, !tbaa !59
  %45 = load ptr, ptr %11, align 8, !tbaa !30
  %46 = load ptr, ptr %12, align 8, !tbaa !55
  %47 = call i32 @read_number(ptr noundef %42, ptr noundef %43, ptr noundef %44, ptr noundef %45, ptr noundef %46)
  store i32 %47, ptr %7, align 4
  store i32 1, ptr %17, align 4
  br label %48

48:                                               ; preds = %35, %34, %27
  call void @llvm.lifetime.end.p0(i64 8, ptr %16) #11
  call void @llvm.lifetime.end.p0(i64 8, ptr %15) #11
  call void @llvm.lifetime.end.p0(i64 8, ptr %14) #11
  %49 = load i32, ptr %7, align 4
  ret i32 %49
}

; Function Attrs: nounwind uwtable
define i32 @av_opt_get_int(ptr noundef %0, ptr noundef %1, i32 noundef %2, ptr noundef %3) #0 {
  %5 = alloca i32, align 4
  %6 = alloca ptr, align 8
  %7 = alloca ptr, align 8
  %8 = alloca i32, align 4
  %9 = alloca ptr, align 8
  %10 = alloca i64, align 8
  %11 = alloca double, align 8
  %12 = alloca i32, align 4
  %13 = alloca i32, align 4
  %14 = alloca i32, align 4
  store ptr %0, ptr %6, align 8, !tbaa !4
  store ptr %1, ptr %7, align 8, !tbaa !19
  store i32 %2, ptr %8, align 4, !tbaa !20
  store ptr %3, ptr %9, align 8, !tbaa !55
  call void @llvm.lifetime.start.p0(i64 8, ptr %10) #11
  store i64 1, ptr %10, align 8, !tbaa !39
  call void @llvm.lifetime.start.p0(i64 8, ptr %11) #11
  store double 1.000000e+00, ptr %11, align 8, !tbaa !53
  call void @llvm.lifetime.start.p0(i64 4, ptr %12) #11
  call void @llvm.lifetime.start.p0(i64 4, ptr %13) #11
  store i32 1, ptr %13, align 4, !tbaa !20
  %15 = load ptr, ptr %6, align 8, !tbaa !4
  %16 = load ptr, ptr %7, align 8, !tbaa !19
  %17 = load i32, ptr %8, align 4, !tbaa !20
  %18 = call i32 @get_number(ptr noundef %15, ptr noundef %16, ptr noundef %11, ptr noundef %13, ptr noundef %10, i32 noundef %17)
  store i32 %18, ptr %12, align 4, !tbaa !20
  %19 = icmp slt i32 %18, 0
  br i1 %19, label %20, label %22

20:                                               ; preds = %4
  %21 = load i32, ptr %12, align 4, !tbaa !20
  store i32 %21, ptr %5, align 4
  store i32 1, ptr %14, align 4
  br label %41

22:                                               ; preds = %4
  %23 = load double, ptr %11, align 8, !tbaa !53
  %24 = load i32, ptr %13, align 4, !tbaa !20
  %25 = sitofp i32 %24 to double
  %26 = fcmp nsz oeq double %23, %25
  br i1 %26, label %27, label %30

27:                                               ; preds = %22
  %28 = load i64, ptr %10, align 8, !tbaa !39
  %29 = load ptr, ptr %9, align 8, !tbaa !55
  store i64 %28, ptr %29, align 8, !tbaa !39
  br label %40

30:                                               ; preds = %22
  %31 = load double, ptr %11, align 8, !tbaa !53
  %32 = load i64, ptr %10, align 8, !tbaa !39
  %33 = sitofp i64 %32 to double
  %34 = fmul nsz double %31, %33
  %35 = load i32, ptr %13, align 4, !tbaa !20
  %36 = sitofp i32 %35 to double
  %37 = fdiv nsz double %34, %36
  %38 = fptosi double %37 to i64
  %39 = load ptr, ptr %9, align 8, !tbaa !55
  store i64 %38, ptr %39, align 8, !tbaa !39
  br label %40

40:                                               ; preds = %30, %27
  store i32 0, ptr %5, align 4
  store i32 1, ptr %14, align 4
  br label %41

41:                                               ; preds = %40, %20
  call void @llvm.lifetime.end.p0(i64 4, ptr %13) #11
  call void @llvm.lifetime.end.p0(i64 4, ptr %12) #11
  call void @llvm.lifetime.end.p0(i64 8, ptr %11) #11
  call void @llvm.lifetime.end.p0(i64 8, ptr %10) #11
  %42 = load i32, ptr %5, align 4
  ret i32 %42
}