; Function Attrs: nounwind uwtable
define range(i32 -1414549496, 1) i32 @av_opt_get_int(ptr noundef %0, ptr noundef %1, i32 noundef %2, ptr noundef writeonly captures(none) %3) local_unnamed_addr #2 {
  %5 = alloca ptr, align 8
  call void @llvm.lifetime.start.p0(i64 8, ptr nonnull %5) #18
  %6 = call ptr @av_opt_find2(ptr noundef %0, ptr noundef %1, ptr noundef null, i32 noundef 0, i32 noundef %2, ptr noundef nonnull %5)
  %7 = icmp ne ptr %6, null
  %8 = load ptr, ptr %5, align 8
  %9 = icmp ne ptr %8, null
  %or.cond.i = select i1 %7, i1 %9, i1 false
  br i1 %or.cond.i, label %10, label %get_number.exit

10:                                               ; preds = %4
  %11 = getelementptr inbounds nuw i8, ptr %6, i64 20
  %12 = load i32, ptr %11, align 4, !tbaa !18
  %13 = and i32 %12, 65536
  %.not.i = icmp eq i32 %13, 0
  br i1 %.not.i, label %14, label %get_number.exit

14:                                               ; preds = %10
  %15 = getelementptr inbounds nuw i8, ptr %6, i64 16
  %16 = load i32, ptr %15, align 8, !tbaa !28
  %17 = sext i32 %16 to i64
  %18 = getelementptr inbounds i8, ptr %8, i64 %17
  switch i32 %12, label %get_number.exit [
    i32 1, label %19
    i32 13, label %22
    i32 14, label %25
    i32 18, label %28
    i32 2, label %28
    i32 20, label %31
    i32 16, label %34
    i32 3, label %34
    i32 10, label %34
    i32 5, label %36
    i32 4, label %39
    i32 7, label %41
    i32 11, label %47
  ]

19:                                               ; preds = %14
  %20 = load i32, ptr %18, align 4, !tbaa !26
  %21 = zext i32 %20 to i64
  br label %50

22:                                               ; preds = %14
  %23 = load i32, ptr %18, align 4, !tbaa !26
  %24 = sext i32 %23 to i64
  br label %50

25:                                               ; preds = %14
  %26 = load i32, ptr %18, align 4, !tbaa !26
  %27 = sext i32 %26 to i64
  br label %50

28:                                               ; preds = %14, %14
  %29 = load i32, ptr %18, align 4, !tbaa !26
  %30 = sext i32 %29 to i64
  br label %50

31:                                               ; preds = %14
  %32 = load i32, ptr %18, align 4, !tbaa !26
  %33 = zext i32 %32 to i64
  br label %50

34:                                               ; preds = %14, %14, %14
  %35 = load i64, ptr %18, align 8, !tbaa !44
  br label %50

36:                                               ; preds = %14
  %37 = load float, ptr %18, align 4, !tbaa !66
  %38 = fpext nsz float %37 to double
  br label %50

39:                                               ; preds = %14
  %40 = load double, ptr %18, align 8, !tbaa !49
  br label %50

41:                                               ; preds = %14
  %42 = load i32, ptr %18, align 4, !tbaa !43
  %43 = sext i32 %42 to i64
  %44 = getelementptr inbounds nuw i8, ptr %18, i64 4
  %45 = load i32, ptr %44, align 4, !tbaa !41
  %46 = sitofp i32 %45 to double
  br label %50

47:                                               ; preds = %14
  %48 = getelementptr inbounds nuw i8, ptr %6, i64 24
  %49 = load i64, ptr %48, align 8, !tbaa !29
  br label %50

get_number.exit:                                  ; preds = %4, %10, %14
  %.0.i = phi i32 [ -1414549496, %4 ], [ -22, %10 ], [ -22, %14 ]
  call void @llvm.lifetime.end.p0(i64 8, ptr nonnull %5) #18
  br label %56

50:                                               ; preds = %47, %41, %39, %36, %34, %31, %28, %25, %22, %19
  %.013.ph = phi i64 [ %21, %19 ], [ %24, %22 ], [ %27, %25 ], [ %30, %28 ], [ %33, %31 ], [ %35, %34 ], [ 1, %36 ], [ 1, %39 ], [ %43, %41 ], [ %49, %47 ]
  %.012.ph = phi double [ 1.000000e+00, %19 ], [ 1.000000e+00, %22 ], [ 1.000000e+00, %25 ], [ 1.000000e+00, %28 ], [ 1.000000e+00, %31 ], [ 1.000000e+00, %34 ], [ %38, %36 ], [ %40, %39 ], [ 1.000000e+00, %41 ], [ 1.000000e+00, %47 ]
  %.011.ph = phi double [ 1.000000e+00, %19 ], [ 1.000000e+00, %22 ], [ 1.000000e+00, %25 ], [ 1.000000e+00, %28 ], [ 1.000000e+00, %31 ], [ 1.000000e+00, %34 ], [ 1.000000e+00, %36 ], [ 1.000000e+00, %39 ], [ %46, %41 ], [ 1.000000e+00, %47 ]
  call void @llvm.lifetime.end.p0(i64 8, ptr nonnull %5) #18
  %51 = fcmp nsz oeq double %.012.ph, %.011.ph
  %52 = sitofp i64 %.013.ph to double
  %53 = fmul nsz double %.012.ph, %52
  %54 = fdiv nsz double %53, %.011.ph
  %55 = fptosi double %54 to i64
  %storemerge = select i1 %51, i64 %.013.ph, i64 %55
  store i64 %storemerge, ptr %3, align 8, !tbaa !44
  br label %56

56:                                               ; preds = %get_number.exit, %50
  %.0 = phi i32 [ 0, %50 ], [ %.0.i, %get_number.exit ]
  ret i32 %.0
}